ARM GAS  C:\Users\gn10g\AppData\Local\Temp\ccLQSaAC.s 			page 1


   1              		.cpu cortex-m4
   2              		.arch armv7e-m
   3              		.fpu fpv4-sp-d16
   4              		.eabi_attribute 27, 1
   5              		.eabi_attribute 28, 1
   6              		.eabi_attribute 20, 1
   7              		.eabi_attribute 21, 1
   8              		.eabi_attribute 23, 3
   9              		.eabi_attribute 24, 1
  10              		.eabi_attribute 25, 1
  11              		.eabi_attribute 26, 1
  12              		.eabi_attribute 30, 1
  13              		.eabi_attribute 34, 1
  14              		.eabi_attribute 18, 4
  15              		.file	"gpio.c"
  16              		.text
  17              	.Ltext0:
  18              		.cfi_sections	.debug_frame
  19              		.file 1 "Core/Src/gpio.c"
  20              		.section	.text.MX_GPIO_Init,"ax",%progbits
  21              		.align	1
  22              		.global	MX_GPIO_Init
  23              		.syntax unified
  24              		.thumb
  25              		.thumb_func
  27              	MX_GPIO_Init:
  28              	.LFB123:
   1:Core/Src/gpio.c **** /* USER CODE BEGIN Header */
   2:Core/Src/gpio.c **** /**
   3:Core/Src/gpio.c ****   ******************************************************************************
   4:Core/Src/gpio.c ****   * @file    gpio.c
   5:Core/Src/gpio.c ****   * @brief   This file provides code for the configuration
   6:Core/Src/gpio.c ****   *          of all used GPIO pins.
   7:Core/Src/gpio.c ****   ******************************************************************************
   8:Core/Src/gpio.c ****   * @attention
   9:Core/Src/gpio.c ****   *
  10:Core/Src/gpio.c ****   * Copyright (c) 2025 STMicroelectronics.
  11:Core/Src/gpio.c ****   * All rights reserved.
  12:Core/Src/gpio.c ****   *
  13:Core/Src/gpio.c ****   * This software is licensed under terms that can be found in the LICENSE file
  14:Core/Src/gpio.c ****   * in the root directory of this software component.
  15:Core/Src/gpio.c ****   * If no LICENSE file comes with this software, it is provided AS-IS.
  16:Core/Src/gpio.c ****   *
  17:Core/Src/gpio.c ****   ******************************************************************************
  18:Core/Src/gpio.c ****   */
  19:Core/Src/gpio.c **** /* USER CODE END Header */
  20:Core/Src/gpio.c **** 
  21:Core/Src/gpio.c **** /* Includes ------------------------------------------------------------------*/
  22:Core/Src/gpio.c **** #include "gpio.h"
  23:Core/Src/gpio.c **** 
  24:Core/Src/gpio.c **** /* USER CODE BEGIN 0 */
  25:Core/Src/gpio.c **** 
  26:Core/Src/gpio.c **** /* USER CODE END 0 */
  27:Core/Src/gpio.c **** 
  28:Core/Src/gpio.c **** /*----------------------------------------------------------------------------*/
  29:Core/Src/gpio.c **** /* Configure GPIO                                                             */
  30:Core/Src/gpio.c **** /*----------------------------------------------------------------------------*/
ARM GAS  C:\Users\gn10g\AppData\Local\Temp\ccLQSaAC.s 			page 2


  31:Core/Src/gpio.c **** /* USER CODE BEGIN 1 */
  32:Core/Src/gpio.c **** 
  33:Core/Src/gpio.c **** /* USER CODE END 1 */
  34:Core/Src/gpio.c **** 
  35:Core/Src/gpio.c **** /** Configure pins as
  36:Core/Src/gpio.c ****         * Analog
  37:Core/Src/gpio.c ****         * Input
  38:Core/Src/gpio.c ****         * Output
  39:Core/Src/gpio.c ****         * EVENT_OUT
  40:Core/Src/gpio.c ****         * EXTI
  41:Core/Src/gpio.c **** */
  42:Core/Src/gpio.c **** void MX_GPIO_Init(void)
  43:Core/Src/gpio.c **** {
  29              		.loc 1 43 1 view -0
  30              		.cfi_startproc
  31              		@ args = 0, pretend = 0, frame = 32
  32              		@ frame_needed = 0, uses_anonymous_args = 0
  33 0000 2DE9F041 		push	{r4, r5, r6, r7, r8, lr}
  34              	.LCFI0:
  35              		.cfi_def_cfa_offset 24
  36              		.cfi_offset 4, -24
  37              		.cfi_offset 5, -20
  38              		.cfi_offset 6, -16
  39              		.cfi_offset 7, -12
  40              		.cfi_offset 8, -8
  41              		.cfi_offset 14, -4
  42 0004 88B0     		sub	sp, sp, #32
  43              	.LCFI1:
  44              		.cfi_def_cfa_offset 56
  44:Core/Src/gpio.c **** 
  45:Core/Src/gpio.c ****   GPIO_InitTypeDef GPIO_InitStruct = {0};
  45              		.loc 1 45 3 view .LVU1
  46              		.loc 1 45 20 is_stmt 0 view .LVU2
  47 0006 03AD     		add	r5, sp, #12
  48 0008 0024     		movs	r4, #0
  49 000a 0394     		str	r4, [sp, #12]
  50 000c 0494     		str	r4, [sp, #16]
  51 000e 0594     		str	r4, [sp, #20]
  52 0010 0694     		str	r4, [sp, #24]
  53 0012 0794     		str	r4, [sp, #28]
  46:Core/Src/gpio.c **** 
  47:Core/Src/gpio.c ****   /* GPIO Ports Clock Enable */
  48:Core/Src/gpio.c ****   __HAL_RCC_GPIOF_CLK_ENABLE();
  54              		.loc 1 48 3 is_stmt 1 view .LVU3
  55              	.LBB2:
  56              		.loc 1 48 3 view .LVU4
  57              		.loc 1 48 3 view .LVU5
  58 0014 2D4B     		ldr	r3, .L3
  59 0016 5A69     		ldr	r2, [r3, #20]
  60 0018 42F48002 		orr	r2, r2, #4194304
  61 001c 5A61     		str	r2, [r3, #20]
  62              		.loc 1 48 3 view .LVU6
  63 001e 5A69     		ldr	r2, [r3, #20]
  64 0020 02F48002 		and	r2, r2, #4194304
  65 0024 0092     		str	r2, [sp]
  66              		.loc 1 48 3 view .LVU7
  67 0026 009A     		ldr	r2, [sp]
ARM GAS  C:\Users\gn10g\AppData\Local\Temp\ccLQSaAC.s 			page 3


  68              	.LBE2:
  69              		.loc 1 48 3 view .LVU8
  49:Core/Src/gpio.c ****   __HAL_RCC_GPIOA_CLK_ENABLE();
  70              		.loc 1 49 3 view .LVU9
  71              	.LBB3:
  72              		.loc 1 49 3 view .LVU10
  73              		.loc 1 49 3 view .LVU11
  74 0028 5A69     		ldr	r2, [r3, #20]
  75 002a 42F40032 		orr	r2, r2, #131072
  76 002e 5A61     		str	r2, [r3, #20]
  77              		.loc 1 49 3 view .LVU12
  78 0030 5A69     		ldr	r2, [r3, #20]
  79 0032 02F40032 		and	r2, r2, #131072
  80 0036 0192     		str	r2, [sp, #4]
  81              		.loc 1 49 3 view .LVU13
  82 0038 019A     		ldr	r2, [sp, #4]
  83              	.LBE3:
  84              		.loc 1 49 3 view .LVU14
  50:Core/Src/gpio.c ****   __HAL_RCC_GPIOB_CLK_ENABLE();
  85              		.loc 1 50 3 view .LVU15
  86              	.LBB4:
  87              		.loc 1 50 3 view .LVU16
  88              		.loc 1 50 3 view .LVU17
  89 003a 5A69     		ldr	r2, [r3, #20]
  90 003c 42F48022 		orr	r2, r2, #262144
  91 0040 5A61     		str	r2, [r3, #20]
  92              		.loc 1 50 3 view .LVU18
  93 0042 5B69     		ldr	r3, [r3, #20]
  94 0044 03F48023 		and	r3, r3, #262144
  95 0048 0293     		str	r3, [sp, #8]
  96              		.loc 1 50 3 view .LVU19
  97 004a 029B     		ldr	r3, [sp, #8]
  98              	.LBE4:
  99              		.loc 1 50 3 view .LVU20
  51:Core/Src/gpio.c **** 
  52:Core/Src/gpio.c ****   /*Configure GPIO pin Output Level */
  53:Core/Src/gpio.c ****   HAL_GPIO_WritePin(DISABLE_GPIO_Port, DISABLE_Pin, GPIO_PIN_RESET);
 100              		.loc 1 53 3 view .LVU21
 101 004c DFF88480 		ldr	r8, .L3+8
 102 0050 2246     		mov	r2, r4
 103 0052 0221     		movs	r1, #2
 104 0054 4046     		mov	r0, r8
 105 0056 FFF7FEFF 		bl	HAL_GPIO_WritePin
 106              	.LVL0:
  54:Core/Src/gpio.c **** 
  55:Core/Src/gpio.c ****   /*Configure GPIO pin Output Level */
  56:Core/Src/gpio.c ****   HAL_GPIO_WritePin(GPIOA, SR_Pin|PHASE_Pin|LED1_Pin|LED2_Pin
 107              		.loc 1 56 3 view .LVU22
 108 005a 2246     		mov	r2, r4
 109 005c FC21     		movs	r1, #252
 110 005e 4FF09040 		mov	r0, #1207959552
 111 0062 FFF7FEFF 		bl	HAL_GPIO_WritePin
 112              	.LVL1:
  57:Core/Src/gpio.c ****                           |LED3_Pin|LED4_Pin, GPIO_PIN_RESET);
  58:Core/Src/gpio.c **** 
  59:Core/Src/gpio.c ****   /*Configure GPIO pin : DISABLE_Pin */
  60:Core/Src/gpio.c ****   GPIO_InitStruct.Pin = DISABLE_Pin;
ARM GAS  C:\Users\gn10g\AppData\Local\Temp\ccLQSaAC.s 			page 4


 113              		.loc 1 60 3 view .LVU23
 114              		.loc 1 60 23 is_stmt 0 view .LVU24
 115 0066 0226     		movs	r6, #2
 116 0068 0396     		str	r6, [sp, #12]
  61:Core/Src/gpio.c ****   GPIO_InitStruct.Mode = GPIO_MODE_OUTPUT_PP;
 117              		.loc 1 61 3 is_stmt 1 view .LVU25
 118              		.loc 1 61 24 is_stmt 0 view .LVU26
 119 006a 0127     		movs	r7, #1
 120 006c 0497     		str	r7, [sp, #16]
  62:Core/Src/gpio.c ****   GPIO_InitStruct.Pull = GPIO_NOPULL;
 121              		.loc 1 62 3 is_stmt 1 view .LVU27
 122              		.loc 1 62 24 is_stmt 0 view .LVU28
 123 006e 0594     		str	r4, [sp, #20]
  63:Core/Src/gpio.c ****   GPIO_InitStruct.Speed = GPIO_SPEED_FREQ_LOW;
 124              		.loc 1 63 3 is_stmt 1 view .LVU29
 125              		.loc 1 63 25 is_stmt 0 view .LVU30
 126 0070 0694     		str	r4, [sp, #24]
  64:Core/Src/gpio.c ****   HAL_GPIO_Init(DISABLE_GPIO_Port, &GPIO_InitStruct);
 127              		.loc 1 64 3 is_stmt 1 view .LVU31
 128 0072 2946     		mov	r1, r5
 129 0074 4046     		mov	r0, r8
 130 0076 FFF7FEFF 		bl	HAL_GPIO_Init
 131              	.LVL2:
  65:Core/Src/gpio.c **** 
  66:Core/Src/gpio.c ****   /*Configure GPIO pins : SR_Pin PHASE_Pin LED1_Pin LED2_Pin
  67:Core/Src/gpio.c ****                            LED3_Pin LED4_Pin */
  68:Core/Src/gpio.c ****   GPIO_InitStruct.Pin = SR_Pin|PHASE_Pin|LED1_Pin|LED2_Pin
 132              		.loc 1 68 3 view .LVU32
 133              		.loc 1 68 23 is_stmt 0 view .LVU33
 134 007a FC23     		movs	r3, #252
 135 007c 0393     		str	r3, [sp, #12]
  69:Core/Src/gpio.c ****                           |LED3_Pin|LED4_Pin;
  70:Core/Src/gpio.c ****   GPIO_InitStruct.Mode = GPIO_MODE_OUTPUT_PP;
 136              		.loc 1 70 3 is_stmt 1 view .LVU34
 137              		.loc 1 70 24 is_stmt 0 view .LVU35
 138 007e 0497     		str	r7, [sp, #16]
  71:Core/Src/gpio.c ****   GPIO_InitStruct.Pull = GPIO_NOPULL;
 139              		.loc 1 71 3 is_stmt 1 view .LVU36
 140              		.loc 1 71 24 is_stmt 0 view .LVU37
 141 0080 0594     		str	r4, [sp, #20]
  72:Core/Src/gpio.c ****   GPIO_InitStruct.Speed = GPIO_SPEED_FREQ_LOW;
 142              		.loc 1 72 3 is_stmt 1 view .LVU38
 143              		.loc 1 72 25 is_stmt 0 view .LVU39
 144 0082 0694     		str	r4, [sp, #24]
  73:Core/Src/gpio.c ****   HAL_GPIO_Init(GPIOA, &GPIO_InitStruct);
 145              		.loc 1 73 3 is_stmt 1 view .LVU40
 146 0084 2946     		mov	r1, r5
 147 0086 4FF09040 		mov	r0, #1207959552
 148 008a FFF7FEFF 		bl	HAL_GPIO_Init
 149              	.LVL3:
  74:Core/Src/gpio.c **** 
  75:Core/Src/gpio.c ****   /*Configure GPIO pin : LIM1_Pin */
  76:Core/Src/gpio.c ****   GPIO_InitStruct.Pin = LIM1_Pin;
 150              		.loc 1 76 3 view .LVU41
 151              		.loc 1 76 23 is_stmt 0 view .LVU42
 152 008e 4FF48063 		mov	r3, #1024
 153 0092 0393     		str	r3, [sp, #12]
ARM GAS  C:\Users\gn10g\AppData\Local\Temp\ccLQSaAC.s 			page 5


  77:Core/Src/gpio.c ****   GPIO_InitStruct.Mode = GPIO_MODE_INPUT;
 154              		.loc 1 77 3 is_stmt 1 view .LVU43
 155              		.loc 1 77 24 is_stmt 0 view .LVU44
 156 0094 0494     		str	r4, [sp, #16]
  78:Core/Src/gpio.c ****   GPIO_InitStruct.Pull = GPIO_NOPULL;
 157              		.loc 1 78 3 is_stmt 1 view .LVU45
 158              		.loc 1 78 24 is_stmt 0 view .LVU46
 159 0096 0594     		str	r4, [sp, #20]
  79:Core/Src/gpio.c ****   HAL_GPIO_Init(LIM1_GPIO_Port, &GPIO_InitStruct);
 160              		.loc 1 79 3 is_stmt 1 view .LVU47
 161 0098 2946     		mov	r1, r5
 162 009a 4FF09040 		mov	r0, #1207959552
 163 009e FFF7FEFF 		bl	HAL_GPIO_Init
 164              	.LVL4:
  80:Core/Src/gpio.c **** 
  81:Core/Src/gpio.c ****   /*Configure GPIO pin : DIP1_Pin */
  82:Core/Src/gpio.c ****   GPIO_InitStruct.Pin = DIP1_Pin;
 165              		.loc 1 82 3 view .LVU48
 166              		.loc 1 82 23 is_stmt 0 view .LVU49
 167 00a2 4FF40043 		mov	r3, #32768
 168 00a6 0393     		str	r3, [sp, #12]
  83:Core/Src/gpio.c ****   GPIO_InitStruct.Mode = GPIO_MODE_INPUT;
 169              		.loc 1 83 3 is_stmt 1 view .LVU50
 170              		.loc 1 83 24 is_stmt 0 view .LVU51
 171 00a8 0494     		str	r4, [sp, #16]
  84:Core/Src/gpio.c ****   GPIO_InitStruct.Pull = GPIO_PULLDOWN;
 172              		.loc 1 84 3 is_stmt 1 view .LVU52
 173              		.loc 1 84 24 is_stmt 0 view .LVU53
 174 00aa 0596     		str	r6, [sp, #20]
  85:Core/Src/gpio.c ****   HAL_GPIO_Init(DIP1_GPIO_Port, &GPIO_InitStruct);
 175              		.loc 1 85 3 is_stmt 1 view .LVU54
 176 00ac 2946     		mov	r1, r5
 177 00ae 4FF09040 		mov	r0, #1207959552
 178 00b2 FFF7FEFF 		bl	HAL_GPIO_Init
 179              	.LVL5:
  86:Core/Src/gpio.c **** 
  87:Core/Src/gpio.c ****   /*Configure GPIO pins : DIP2_Pin DIP3_Pin DIP4_Pin */
  88:Core/Src/gpio.c ****   GPIO_InitStruct.Pin = DIP2_Pin|DIP3_Pin|DIP4_Pin;
 180              		.loc 1 88 3 view .LVU55
 181              		.loc 1 88 23 is_stmt 0 view .LVU56
 182 00b6 3823     		movs	r3, #56
 183 00b8 0393     		str	r3, [sp, #12]
  89:Core/Src/gpio.c ****   GPIO_InitStruct.Mode = GPIO_MODE_INPUT;
 184              		.loc 1 89 3 is_stmt 1 view .LVU57
 185              		.loc 1 89 24 is_stmt 0 view .LVU58
 186 00ba 0494     		str	r4, [sp, #16]
  90:Core/Src/gpio.c ****   GPIO_InitStruct.Pull = GPIO_PULLDOWN;
 187              		.loc 1 90 3 is_stmt 1 view .LVU59
 188              		.loc 1 90 24 is_stmt 0 view .LVU60
 189 00bc 0596     		str	r6, [sp, #20]
  91:Core/Src/gpio.c ****   HAL_GPIO_Init(GPIOB, &GPIO_InitStruct);
 190              		.loc 1 91 3 is_stmt 1 view .LVU61
 191 00be 2946     		mov	r1, r5
 192 00c0 0348     		ldr	r0, .L3+4
 193 00c2 FFF7FEFF 		bl	HAL_GPIO_Init
 194              	.LVL6:
  92:Core/Src/gpio.c **** 
ARM GAS  C:\Users\gn10g\AppData\Local\Temp\ccLQSaAC.s 			page 6


  93:Core/Src/gpio.c **** }
 195              		.loc 1 93 1 is_stmt 0 view .LVU62
 196 00c6 08B0     		add	sp, sp, #32
 197              	.LCFI2:
 198              		.cfi_def_cfa_offset 24
 199              		@ sp needed
 200 00c8 BDE8F081 		pop	{r4, r5, r6, r7, r8, pc}
 201              	.L4:
 202              		.align	2
 203              	.L3:
 204 00cc 00100240 		.word	1073876992
 205 00d0 00040048 		.word	1207960576
 206 00d4 00140048 		.word	1207964672
 207              		.cfi_endproc
 208              	.LFE123:
 210              		.text
 211              	.Letext0:
 212              		.file 2 "C:/Program Files (x86)/Arm GNU Toolchain arm-none-eabi/14.2 rel1/arm-none-eabi/include/ma
 213              		.file 3 "C:/Program Files (x86)/Arm GNU Toolchain arm-none-eabi/14.2 rel1/arm-none-eabi/include/sy
 214              		.file 4 "Drivers/CMSIS/Device/ST/STM32F3xx/Include/stm32f303x8.h"
 215              		.file 5 "Drivers/STM32F3xx_HAL_Driver/Inc/stm32f3xx_hal_gpio.h"
ARM GAS  C:\Users\gn10g\AppData\Local\Temp\ccLQSaAC.s 			page 7

