ARM GAS  C:\Users\gn10g\AppData\Local\Temp\ccMs7Hzi.s 			page 1


   1              		.cpu cortex-m4
   2              		.arch armv7e-m
   3              		.fpu fpv4-sp-d16
   4              		.eabi_attribute 27, 1
   5              		.eabi_attribute 28, 1
   6              		.eabi_attribute 20, 1
   7              		.eabi_attribute 21, 1
   8              		.eabi_attribute 23, 3
   9              		.eabi_attribute 24, 1
  10              		.eabi_attribute 25, 1
  11              		.eabi_attribute 26, 1
  12              		.eabi_attribute 30, 1
  13              		.eabi_attribute 34, 1
  14              		.eabi_attribute 18, 4
  15              		.file	"main.cpp"
  16              		.text
  17              	.Ltext0:
  18              		.cfi_sections	.debug_frame
  19              		.file 1 "Core/Src/main.cpp"
  20              		.section	.text._Z41__static_initialization_and_destruction_0v,"ax",%progbits
  21              		.align	1
  22              		.syntax unified
  23              		.thumb
  24              		.thumb_func
  26              	_Z41__static_initialization_and_destruction_0v:
  27              		.fnstart
  28              	.LFB157:
   1:Core/Src/main.cpp **** /* USER CODE BEGIN Header */
   2:Core/Src/main.cpp **** /**
   3:Core/Src/main.cpp ****  ******************************************************************************
   4:Core/Src/main.cpp ****  * @file           : main.c
   5:Core/Src/main.cpp ****  * @brief          : Main program body
   6:Core/Src/main.cpp ****  ******************************************************************************
   7:Core/Src/main.cpp ****  * @attention
   8:Core/Src/main.cpp ****  *
   9:Core/Src/main.cpp ****  * Copyright (c) 2025 STMicroelectronics.
  10:Core/Src/main.cpp ****  * All rights reserved.
  11:Core/Src/main.cpp ****  *
  12:Core/Src/main.cpp ****  * This software is licensed under terms that can be found in the LICENSE file
  13:Core/Src/main.cpp ****  * in the root directory of this software component.
  14:Core/Src/main.cpp ****  * If no LICENSE file comes with this software, it is provided AS-IS.
  15:Core/Src/main.cpp ****  *
  16:Core/Src/main.cpp ****  ******************************************************************************
  17:Core/Src/main.cpp ****  */
  18:Core/Src/main.cpp **** /* USER CODE END Header */
  19:Core/Src/main.cpp **** /* Includes ------------------------------------------------------------------*/
  20:Core/Src/main.cpp **** #include "main.h"
  21:Core/Src/main.cpp **** #include "can.h"
  22:Core/Src/main.cpp **** #include "tim.h"
  23:Core/Src/main.cpp **** #include "usart.h"
  24:Core/Src/main.cpp **** #include "gpio.h"
  25:Core/Src/main.cpp **** 
  26:Core/Src/main.cpp **** /* Private includes ----------------------------------------------------------*/
  27:Core/Src/main.cpp **** /* USER CODE BEGIN Includes */
  28:Core/Src/main.cpp **** #include "app.hpp"
  29:Core/Src/main.cpp **** /* USER CODE END Includes */
  30:Core/Src/main.cpp **** 
ARM GAS  C:\Users\gn10g\AppData\Local\Temp\ccMs7Hzi.s 			page 2


  31:Core/Src/main.cpp **** /* Private typedef -----------------------------------------------------------*/
  32:Core/Src/main.cpp **** /* USER CODE BEGIN PTD */
  33:Core/Src/main.cpp **** 
  34:Core/Src/main.cpp **** /* USER CODE END PTD */
  35:Core/Src/main.cpp **** 
  36:Core/Src/main.cpp **** /* Private define ------------------------------------------------------------*/
  37:Core/Src/main.cpp **** /* USER CODE BEGIN PD */
  38:Core/Src/main.cpp **** 
  39:Core/Src/main.cpp **** /* USER CODE END PD */
  40:Core/Src/main.cpp **** 
  41:Core/Src/main.cpp **** /* Private macro -------------------------------------------------------------*/
  42:Core/Src/main.cpp **** /* USER CODE BEGIN PM */
  43:Core/Src/main.cpp **** 
  44:Core/Src/main.cpp **** /* USER CODE END PM */
  45:Core/Src/main.cpp **** 
  46:Core/Src/main.cpp **** /* Private variables ---------------------------------------------------------*/
  47:Core/Src/main.cpp **** 
  48:Core/Src/main.cpp **** /* USER CODE BEGIN PV */
  49:Core/Src/main.cpp **** App app;
  50:Core/Src/main.cpp **** /* USER CODE END PV */
  51:Core/Src/main.cpp **** 
  52:Core/Src/main.cpp **** /* Private function prototypes -----------------------------------------------*/
  53:Core/Src/main.cpp **** void SystemClock_Config(void);
  54:Core/Src/main.cpp **** /* USER CODE BEGIN PFP */
  55:Core/Src/main.cpp **** 
  56:Core/Src/main.cpp **** /* USER CODE END PFP */
  57:Core/Src/main.cpp **** 
  58:Core/Src/main.cpp **** /* Private user code ---------------------------------------------------------*/
  59:Core/Src/main.cpp **** /* USER CODE BEGIN 0 */
  60:Core/Src/main.cpp **** 
  61:Core/Src/main.cpp **** /* USER CODE END 0 */
  62:Core/Src/main.cpp **** 
  63:Core/Src/main.cpp **** /**
  64:Core/Src/main.cpp ****  * @brief  The application entry point.
  65:Core/Src/main.cpp ****  * @retval int
  66:Core/Src/main.cpp ****  */
  67:Core/Src/main.cpp **** int main(void)
  68:Core/Src/main.cpp **** {
  69:Core/Src/main.cpp **** 
  70:Core/Src/main.cpp ****   /* USER CODE BEGIN 1 */
  71:Core/Src/main.cpp **** 
  72:Core/Src/main.cpp ****   /* USER CODE END 1 */
  73:Core/Src/main.cpp **** 
  74:Core/Src/main.cpp ****   /* MCU Configuration--------------------------------------------------------*/
  75:Core/Src/main.cpp **** 
  76:Core/Src/main.cpp ****   /* Reset of all peripherals, Initializes the Flash interface and the Systick. */
  77:Core/Src/main.cpp ****   HAL_Init();
  78:Core/Src/main.cpp **** 
  79:Core/Src/main.cpp ****   /* USER CODE BEGIN Init */
  80:Core/Src/main.cpp **** 
  81:Core/Src/main.cpp ****   /* USER CODE END Init */
  82:Core/Src/main.cpp **** 
  83:Core/Src/main.cpp ****   /* Configure the system clock */
  84:Core/Src/main.cpp ****   SystemClock_Config();
  85:Core/Src/main.cpp **** 
  86:Core/Src/main.cpp ****   /* USER CODE BEGIN SysInit */
  87:Core/Src/main.cpp **** 
ARM GAS  C:\Users\gn10g\AppData\Local\Temp\ccMs7Hzi.s 			page 3


  88:Core/Src/main.cpp ****   /* USER CODE END SysInit */
  89:Core/Src/main.cpp **** 
  90:Core/Src/main.cpp ****   /* Initialize all configured peripherals */
  91:Core/Src/main.cpp ****   MX_GPIO_Init();
  92:Core/Src/main.cpp ****   MX_CAN_Init();
  93:Core/Src/main.cpp ****   MX_TIM1_Init();
  94:Core/Src/main.cpp ****   MX_TIM2_Init();
  95:Core/Src/main.cpp ****   MX_TIM6_Init();
  96:Core/Src/main.cpp ****   MX_USART1_UART_Init();
  97:Core/Src/main.cpp ****   /* USER CODE BEGIN 2 */
  98:Core/Src/main.cpp ****   app.init();
  99:Core/Src/main.cpp ****   /* USER CODE END 2 */
 100:Core/Src/main.cpp **** 
 101:Core/Src/main.cpp ****   /* Infinite loop */
 102:Core/Src/main.cpp ****   /* USER CODE BEGIN WHILE */
 103:Core/Src/main.cpp ****   while (1)
 104:Core/Src/main.cpp ****   {
 105:Core/Src/main.cpp ****     /* USER CODE END WHILE */
 106:Core/Src/main.cpp **** 
 107:Core/Src/main.cpp ****     /* USER CODE BEGIN 3 */
 108:Core/Src/main.cpp ****     app.main_loop();
 109:Core/Src/main.cpp ****   }
 110:Core/Src/main.cpp ****   /* USER CODE END 3 */
 111:Core/Src/main.cpp **** }
 112:Core/Src/main.cpp **** 
 113:Core/Src/main.cpp **** /**
 114:Core/Src/main.cpp ****  * @brief System Clock Configuration
 115:Core/Src/main.cpp ****  * @retval None
 116:Core/Src/main.cpp ****  */
 117:Core/Src/main.cpp **** void SystemClock_Config(void)
 118:Core/Src/main.cpp **** {
 119:Core/Src/main.cpp ****   RCC_OscInitTypeDef RCC_OscInitStruct = {0};
 120:Core/Src/main.cpp ****   RCC_ClkInitTypeDef RCC_ClkInitStruct = {0};
 121:Core/Src/main.cpp ****   RCC_PeriphCLKInitTypeDef PeriphClkInit = {0};
 122:Core/Src/main.cpp **** 
 123:Core/Src/main.cpp ****   /** Initializes the RCC Oscillators according to the specified parameters
 124:Core/Src/main.cpp ****    * in the RCC_OscInitTypeDef structure.
 125:Core/Src/main.cpp ****    */
 126:Core/Src/main.cpp ****   RCC_OscInitStruct.OscillatorType = RCC_OSCILLATORTYPE_HSI;
 127:Core/Src/main.cpp ****   RCC_OscInitStruct.HSIState = RCC_HSI_ON;
 128:Core/Src/main.cpp ****   RCC_OscInitStruct.HSICalibrationValue = RCC_HSICALIBRATION_DEFAULT;
 129:Core/Src/main.cpp ****   RCC_OscInitStruct.PLL.PLLState = RCC_PLL_ON;
 130:Core/Src/main.cpp ****   RCC_OscInitStruct.PLL.PLLSource = RCC_PLLSOURCE_HSI;
 131:Core/Src/main.cpp ****   RCC_OscInitStruct.PLL.PLLMUL = RCC_PLL_MUL16;
 132:Core/Src/main.cpp ****   if (HAL_RCC_OscConfig(&RCC_OscInitStruct) != HAL_OK)
 133:Core/Src/main.cpp ****   {
 134:Core/Src/main.cpp ****     Error_Handler();
 135:Core/Src/main.cpp ****   }
 136:Core/Src/main.cpp **** 
 137:Core/Src/main.cpp ****   /** Initializes the CPU, AHB and APB buses clocks
 138:Core/Src/main.cpp ****    */
 139:Core/Src/main.cpp ****   RCC_ClkInitStruct.ClockType = RCC_CLOCKTYPE_HCLK | RCC_CLOCKTYPE_SYSCLK | RCC_CLOCKTYPE_PCLK1 | R
 140:Core/Src/main.cpp ****   RCC_ClkInitStruct.SYSCLKSource = RCC_SYSCLKSOURCE_PLLCLK;
 141:Core/Src/main.cpp ****   RCC_ClkInitStruct.AHBCLKDivider = RCC_SYSCLK_DIV1;
 142:Core/Src/main.cpp ****   RCC_ClkInitStruct.APB1CLKDivider = RCC_HCLK_DIV2;
 143:Core/Src/main.cpp ****   RCC_ClkInitStruct.APB2CLKDivider = RCC_HCLK_DIV1;
 144:Core/Src/main.cpp **** 
ARM GAS  C:\Users\gn10g\AppData\Local\Temp\ccMs7Hzi.s 			page 4


 145:Core/Src/main.cpp ****   if (HAL_RCC_ClockConfig(&RCC_ClkInitStruct, FLASH_LATENCY_2) != HAL_OK)
 146:Core/Src/main.cpp ****   {
 147:Core/Src/main.cpp ****     Error_Handler();
 148:Core/Src/main.cpp ****   }
 149:Core/Src/main.cpp ****   PeriphClkInit.PeriphClockSelection = RCC_PERIPHCLK_USART1 | RCC_PERIPHCLK_TIM1;
 150:Core/Src/main.cpp ****   PeriphClkInit.Usart1ClockSelection = RCC_USART1CLKSOURCE_PCLK1;
 151:Core/Src/main.cpp ****   PeriphClkInit.Tim1ClockSelection = RCC_TIM1CLK_HCLK;
 152:Core/Src/main.cpp ****   if (HAL_RCCEx_PeriphCLKConfig(&PeriphClkInit) != HAL_OK)
 153:Core/Src/main.cpp ****   {
 154:Core/Src/main.cpp ****     Error_Handler();
 155:Core/Src/main.cpp ****   }
 156:Core/Src/main.cpp **** }
 157:Core/Src/main.cpp **** 
 158:Core/Src/main.cpp **** /* USER CODE BEGIN 4 */
 159:Core/Src/main.cpp **** void HAL_CAN_RxFifo0MsgPendingCallback(CAN_HandleTypeDef *hcan)
 160:Core/Src/main.cpp **** {
 161:Core/Src/main.cpp ****   app.can_callback_process(hcan);
 162:Core/Src/main.cpp **** }
 163:Core/Src/main.cpp **** void HAL_TIM_PeriodElapsedCallback(TIM_HandleTypeDef *htim)
 164:Core/Src/main.cpp **** {
 165:Core/Src/main.cpp ****   if (htim->Instance == TIM6)
 166:Core/Src/main.cpp ****   {
 167:Core/Src/main.cpp ****     app.timer_task();
 168:Core/Src/main.cpp ****   }
 169:Core/Src/main.cpp **** }
 170:Core/Src/main.cpp **** /* USER CODE END 4 */
 171:Core/Src/main.cpp **** 
 172:Core/Src/main.cpp **** /**
 173:Core/Src/main.cpp ****  * @brief  This function is executed in case of error occurrence.
 174:Core/Src/main.cpp ****  * @retval None
 175:Core/Src/main.cpp ****  */
 176:Core/Src/main.cpp **** void Error_Handler(void)
 177:Core/Src/main.cpp **** {
 178:Core/Src/main.cpp ****   /* USER CODE BEGIN Error_Handler_Debug */
 179:Core/Src/main.cpp ****   /* User can add his own implementation to report the HAL error return state */
 180:Core/Src/main.cpp ****   __disable_irq();
 181:Core/Src/main.cpp ****   while (1)
 182:Core/Src/main.cpp ****   {
 183:Core/Src/main.cpp ****   }
 184:Core/Src/main.cpp ****   /* USER CODE END Error_Handler_Debug */
 185:Core/Src/main.cpp **** }
  29              		.loc 1 185 1 view -0
  30              		.cfi_startproc
  31              		@ args = 0, pretend = 0, frame = 0
  32              		@ frame_needed = 0, uses_anonymous_args = 0
  33              		@ link register save eliminated.
  34              	.LVL0:
  35              	.LBB7:
  36              	.LBI7:
  37              		.file 2 "App/Inc/app.hpp"
   1:App/Inc/app.hpp **** #include <stdint.h>
   2:App/Inc/app.hpp **** #include "can.h"
   3:App/Inc/app.hpp **** #include "can_driver.hpp"
   4:App/Inc/app.hpp **** 
   5:App/Inc/app.hpp **** class App
  38              		.loc 2 5 7 view .LVU1
  39              	.LBB8:
ARM GAS  C:\Users\gn10g\AppData\Local\Temp\ccMs7Hzi.s 			page 5


  40 0000 054B     		ldr	r3, .L2
  41 0002 0022     		movs	r2, #0
  42 0004 5A70     		strb	r2, [r3, #1]
  43 0006 1A84     		strh	r2, [r3, #32]	@ movhi
  44 0008 4FF47A71 		mov	r1, #1000
  45 000c 5984     		strh	r1, [r3, #34]	@ movhi
  46 000e 9A84     		strh	r2, [r3, #36]	@ movhi
  47 0010 DA84     		strh	r2, [r3, #38]	@ movhi
  48 0012 6422     		movs	r2, #100
  49 0014 1A85     		strh	r2, [r3, #40]	@ movhi
  50              	.LVL1:
  51              		.loc 2 5 7 is_stmt 0 view .LVU2
  52              	.LBE8:
  53              	.LBE7:
  54              		.loc 1 185 1 view .LVU3
  55 0016 7047     		bx	lr
  56              	.L3:
  57              		.align	2
  58              	.L2:
  59 0018 00000000 		.word	app
  60              		.cfi_endproc
  61              	.LFE157:
  62              		.cantunwind
  63              		.fnend
  65              		.section	.text.HAL_CAN_RxFifo0MsgPendingCallback,"ax",%progbits
  66              		.align	1
  67              		.global	HAL_CAN_RxFifo0MsgPendingCallback
  68              		.syntax unified
  69              		.thumb
  70              		.thumb_func
  72              	HAL_CAN_RxFifo0MsgPendingCallback:
  73              		.fnstart
  74              	.LVL2:
  75              	.LFB150:
 160:Core/Src/main.cpp ****   app.can_callback_process(hcan);
  76              		.loc 1 160 1 is_stmt 1 view -0
  77              		.cfi_startproc
  78              		@ args = 0, pretend = 0, frame = 0
  79              		@ frame_needed = 0, uses_anonymous_args = 0
 160:Core/Src/main.cpp ****   app.can_callback_process(hcan);
  80              		.loc 1 160 1 is_stmt 0 view .LVU5
  81 0000 08B5     		push	{r3, lr}
  82              		.save {r3, lr}
  83              	.LCFI0:
  84              		.cfi_def_cfa_offset 8
  85              		.cfi_offset 3, -8
  86              		.cfi_offset 14, -4
  87 0002 0146     		mov	r1, r0
 161:Core/Src/main.cpp **** }
  88              		.loc 1 161 3 is_stmt 1 view .LVU6
 161:Core/Src/main.cpp **** }
  89              		.loc 1 161 27 is_stmt 0 view .LVU7
  90 0004 0148     		ldr	r0, .L6
  91              	.LVL3:
 161:Core/Src/main.cpp **** }
  92              		.loc 1 161 27 view .LVU8
  93 0006 FFF7FEFF 		bl	_ZN3App20can_callback_processEP17CAN_HandleTypeDef
ARM GAS  C:\Users\gn10g\AppData\Local\Temp\ccMs7Hzi.s 			page 6


  94              	.LVL4:
 162:Core/Src/main.cpp **** void HAL_TIM_PeriodElapsedCallback(TIM_HandleTypeDef *htim)
  95              		.loc 1 162 1 view .LVU9
  96 000a 08BD     		pop	{r3, pc}
  97              	.L7:
  98              		.align	2
  99              	.L6:
 100 000c 00000000 		.word	app
 101              		.cfi_endproc
 102              	.LFE150:
 103              		.fnend
 105              		.section	.text.HAL_TIM_PeriodElapsedCallback,"ax",%progbits
 106              		.align	1
 107              		.global	HAL_TIM_PeriodElapsedCallback
 108              		.syntax unified
 109              		.thumb
 110              		.thumb_func
 112              	HAL_TIM_PeriodElapsedCallback:
 113              		.fnstart
 114              	.LVL5:
 115              	.LFB151:
 164:Core/Src/main.cpp ****   if (htim->Instance == TIM6)
 116              		.loc 1 164 1 is_stmt 1 view -0
 117              		.cfi_startproc
 118              		@ args = 0, pretend = 0, frame = 0
 119              		@ frame_needed = 0, uses_anonymous_args = 0
 164:Core/Src/main.cpp ****   if (htim->Instance == TIM6)
 120              		.loc 1 164 1 is_stmt 0 view .LVU11
 121 0000 08B5     		push	{r3, lr}
 122              		.save {r3, lr}
 123              	.LCFI1:
 124              		.cfi_def_cfa_offset 8
 125              		.cfi_offset 3, -8
 126              		.cfi_offset 14, -4
 165:Core/Src/main.cpp ****   {
 127              		.loc 1 165 3 is_stmt 1 view .LVU12
 165:Core/Src/main.cpp ****   {
 128              		.loc 1 165 13 is_stmt 0 view .LVU13
 129 0002 0268     		ldr	r2, [r0]
 165:Core/Src/main.cpp ****   {
 130              		.loc 1 165 3 view .LVU14
 131 0004 034B     		ldr	r3, .L12
 132 0006 9A42     		cmp	r2, r3
 133 0008 00D0     		beq	.L11
 134              	.LVL6:
 135              	.L8:
 169:Core/Src/main.cpp **** /* USER CODE END 4 */
 136              		.loc 1 169 1 view .LVU15
 137 000a 08BD     		pop	{r3, pc}
 138              	.LVL7:
 139              	.L11:
 167:Core/Src/main.cpp ****   }
 140              		.loc 1 167 5 is_stmt 1 view .LVU16
 167:Core/Src/main.cpp ****   }
 141              		.loc 1 167 19 is_stmt 0 view .LVU17
 142 000c 0248     		ldr	r0, .L12+4
 143              	.LVL8:
ARM GAS  C:\Users\gn10g\AppData\Local\Temp\ccMs7Hzi.s 			page 7


 167:Core/Src/main.cpp ****   }
 144              		.loc 1 167 19 view .LVU18
 145 000e FFF7FEFF 		bl	_ZN3App10timer_taskEv
 146              	.LVL9:
 169:Core/Src/main.cpp **** /* USER CODE END 4 */
 147              		.loc 1 169 1 view .LVU19
 148 0012 FAE7     		b	.L8
 149              	.L13:
 150              		.align	2
 151              	.L12:
 152 0014 00100040 		.word	1073745920
 153 0018 00000000 		.word	app
 154              		.cfi_endproc
 155              	.LFE151:
 156              		.fnend
 158              		.section	.text.Error_Handler,"ax",%progbits
 159              		.align	1
 160              		.global	Error_Handler
 161              		.syntax unified
 162              		.thumb
 163              		.thumb_func
 165              	Error_Handler:
 166              		.fnstart
 167              	.LFB152:
 177:Core/Src/main.cpp ****   /* USER CODE BEGIN Error_Handler_Debug */
 168              		.loc 1 177 1 is_stmt 1 view -0
 169              		.cfi_startproc
 170              		@ Volatile: function does not return.
 171              		@ args = 0, pretend = 0, frame = 0
 172              		@ frame_needed = 0, uses_anonymous_args = 0
 173              		@ link register save eliminated.
 180:Core/Src/main.cpp ****   while (1)
 174              		.loc 1 180 3 view .LVU21
 175              	.LBB9:
 176              	.LBI9:
 177              		.file 3 "Drivers/CMSIS/Include/cmsis_gcc.h"
   1:Drivers/CMSIS/Include/cmsis_gcc.h **** /**************************************************************************//**
   2:Drivers/CMSIS/Include/cmsis_gcc.h ****  * @file     cmsis_gcc.h
   3:Drivers/CMSIS/Include/cmsis_gcc.h ****  * @brief    CMSIS compiler GCC header file
   4:Drivers/CMSIS/Include/cmsis_gcc.h ****  * @version  V5.0.4
   5:Drivers/CMSIS/Include/cmsis_gcc.h ****  * @date     09. April 2018
   6:Drivers/CMSIS/Include/cmsis_gcc.h ****  ******************************************************************************/
   7:Drivers/CMSIS/Include/cmsis_gcc.h **** /*
   8:Drivers/CMSIS/Include/cmsis_gcc.h ****  * Copyright (c) 2009-2018 Arm Limited. All rights reserved.
   9:Drivers/CMSIS/Include/cmsis_gcc.h ****  *
  10:Drivers/CMSIS/Include/cmsis_gcc.h ****  * SPDX-License-Identifier: Apache-2.0
  11:Drivers/CMSIS/Include/cmsis_gcc.h ****  *
  12:Drivers/CMSIS/Include/cmsis_gcc.h ****  * Licensed under the Apache License, Version 2.0 (the License); you may
  13:Drivers/CMSIS/Include/cmsis_gcc.h ****  * not use this file except in compliance with the License.
  14:Drivers/CMSIS/Include/cmsis_gcc.h ****  * You may obtain a copy of the License at
  15:Drivers/CMSIS/Include/cmsis_gcc.h ****  *
  16:Drivers/CMSIS/Include/cmsis_gcc.h ****  * www.apache.org/licenses/LICENSE-2.0
  17:Drivers/CMSIS/Include/cmsis_gcc.h ****  *
  18:Drivers/CMSIS/Include/cmsis_gcc.h ****  * Unless required by applicable law or agreed to in writing, software
  19:Drivers/CMSIS/Include/cmsis_gcc.h ****  * distributed under the License is distributed on an AS IS BASIS, WITHOUT
  20:Drivers/CMSIS/Include/cmsis_gcc.h ****  * WARRANTIES OR CONDITIONS OF ANY KIND, either express or implied.
  21:Drivers/CMSIS/Include/cmsis_gcc.h ****  * See the License for the specific language governing permissions and
ARM GAS  C:\Users\gn10g\AppData\Local\Temp\ccMs7Hzi.s 			page 8


  22:Drivers/CMSIS/Include/cmsis_gcc.h ****  * limitations under the License.
  23:Drivers/CMSIS/Include/cmsis_gcc.h ****  */
  24:Drivers/CMSIS/Include/cmsis_gcc.h **** 
  25:Drivers/CMSIS/Include/cmsis_gcc.h **** #ifndef __CMSIS_GCC_H
  26:Drivers/CMSIS/Include/cmsis_gcc.h **** #define __CMSIS_GCC_H
  27:Drivers/CMSIS/Include/cmsis_gcc.h **** 
  28:Drivers/CMSIS/Include/cmsis_gcc.h **** /* ignore some GCC warnings */
  29:Drivers/CMSIS/Include/cmsis_gcc.h **** #pragma GCC diagnostic push
  30:Drivers/CMSIS/Include/cmsis_gcc.h **** #pragma GCC diagnostic ignored "-Wsign-conversion"
  31:Drivers/CMSIS/Include/cmsis_gcc.h **** #pragma GCC diagnostic ignored "-Wconversion"
  32:Drivers/CMSIS/Include/cmsis_gcc.h **** #pragma GCC diagnostic ignored "-Wunused-parameter"
  33:Drivers/CMSIS/Include/cmsis_gcc.h **** 
  34:Drivers/CMSIS/Include/cmsis_gcc.h **** /* Fallback for __has_builtin */
  35:Drivers/CMSIS/Include/cmsis_gcc.h **** #ifndef __has_builtin
  36:Drivers/CMSIS/Include/cmsis_gcc.h ****   #define __has_builtin(x) (0)
  37:Drivers/CMSIS/Include/cmsis_gcc.h **** #endif
  38:Drivers/CMSIS/Include/cmsis_gcc.h **** 
  39:Drivers/CMSIS/Include/cmsis_gcc.h **** /* CMSIS compiler specific defines */
  40:Drivers/CMSIS/Include/cmsis_gcc.h **** #ifndef   __ASM
  41:Drivers/CMSIS/Include/cmsis_gcc.h ****   #define __ASM                                  __asm
  42:Drivers/CMSIS/Include/cmsis_gcc.h **** #endif
  43:Drivers/CMSIS/Include/cmsis_gcc.h **** #ifndef   __INLINE
  44:Drivers/CMSIS/Include/cmsis_gcc.h ****   #define __INLINE                               inline
  45:Drivers/CMSIS/Include/cmsis_gcc.h **** #endif
  46:Drivers/CMSIS/Include/cmsis_gcc.h **** #ifndef   __STATIC_INLINE
  47:Drivers/CMSIS/Include/cmsis_gcc.h ****   #define __STATIC_INLINE                        static inline
  48:Drivers/CMSIS/Include/cmsis_gcc.h **** #endif
  49:Drivers/CMSIS/Include/cmsis_gcc.h **** #ifndef   __STATIC_FORCEINLINE                 
  50:Drivers/CMSIS/Include/cmsis_gcc.h ****   #define __STATIC_FORCEINLINE                   __attribute__((always_inline)) static inline
  51:Drivers/CMSIS/Include/cmsis_gcc.h **** #endif                                           
  52:Drivers/CMSIS/Include/cmsis_gcc.h **** #ifndef   __NO_RETURN
  53:Drivers/CMSIS/Include/cmsis_gcc.h ****   #define __NO_RETURN                            __attribute__((__noreturn__))
  54:Drivers/CMSIS/Include/cmsis_gcc.h **** #endif
  55:Drivers/CMSIS/Include/cmsis_gcc.h **** #ifndef   __USED
  56:Drivers/CMSIS/Include/cmsis_gcc.h ****   #define __USED                                 __attribute__((used))
  57:Drivers/CMSIS/Include/cmsis_gcc.h **** #endif
  58:Drivers/CMSIS/Include/cmsis_gcc.h **** #ifndef   __WEAK
  59:Drivers/CMSIS/Include/cmsis_gcc.h ****   #define __WEAK                                 __attribute__((weak))
  60:Drivers/CMSIS/Include/cmsis_gcc.h **** #endif
  61:Drivers/CMSIS/Include/cmsis_gcc.h **** #ifndef   __PACKED
  62:Drivers/CMSIS/Include/cmsis_gcc.h ****   #define __PACKED                               __attribute__((packed, aligned(1)))
  63:Drivers/CMSIS/Include/cmsis_gcc.h **** #endif
  64:Drivers/CMSIS/Include/cmsis_gcc.h **** #ifndef   __PACKED_STRUCT
  65:Drivers/CMSIS/Include/cmsis_gcc.h ****   #define __PACKED_STRUCT                        struct __attribute__((packed, aligned(1)))
  66:Drivers/CMSIS/Include/cmsis_gcc.h **** #endif
  67:Drivers/CMSIS/Include/cmsis_gcc.h **** #ifndef   __PACKED_UNION
  68:Drivers/CMSIS/Include/cmsis_gcc.h ****   #define __PACKED_UNION                         union __attribute__((packed, aligned(1)))
  69:Drivers/CMSIS/Include/cmsis_gcc.h **** #endif
  70:Drivers/CMSIS/Include/cmsis_gcc.h **** #ifndef   __UNALIGNED_UINT32        /* deprecated */
  71:Drivers/CMSIS/Include/cmsis_gcc.h ****   #pragma GCC diagnostic push
  72:Drivers/CMSIS/Include/cmsis_gcc.h ****   #pragma GCC diagnostic ignored "-Wpacked"
  73:Drivers/CMSIS/Include/cmsis_gcc.h ****   #pragma GCC diagnostic ignored "-Wattributes"
  74:Drivers/CMSIS/Include/cmsis_gcc.h ****   struct __attribute__((packed)) T_UINT32 { uint32_t v; };
  75:Drivers/CMSIS/Include/cmsis_gcc.h ****   #pragma GCC diagnostic pop
  76:Drivers/CMSIS/Include/cmsis_gcc.h ****   #define __UNALIGNED_UINT32(x)                  (((struct T_UINT32 *)(x))->v)
  77:Drivers/CMSIS/Include/cmsis_gcc.h **** #endif
  78:Drivers/CMSIS/Include/cmsis_gcc.h **** #ifndef   __UNALIGNED_UINT16_WRITE
ARM GAS  C:\Users\gn10g\AppData\Local\Temp\ccMs7Hzi.s 			page 9


  79:Drivers/CMSIS/Include/cmsis_gcc.h ****   #pragma GCC diagnostic push
  80:Drivers/CMSIS/Include/cmsis_gcc.h ****   #pragma GCC diagnostic ignored "-Wpacked"
  81:Drivers/CMSIS/Include/cmsis_gcc.h ****   #pragma GCC diagnostic ignored "-Wattributes"
  82:Drivers/CMSIS/Include/cmsis_gcc.h ****   __PACKED_STRUCT T_UINT16_WRITE { uint16_t v; };
  83:Drivers/CMSIS/Include/cmsis_gcc.h ****   #pragma GCC diagnostic pop
  84:Drivers/CMSIS/Include/cmsis_gcc.h ****   #define __UNALIGNED_UINT16_WRITE(addr, val)    (void)((((struct T_UINT16_WRITE *)(void *)(addr))-
  85:Drivers/CMSIS/Include/cmsis_gcc.h **** #endif
  86:Drivers/CMSIS/Include/cmsis_gcc.h **** #ifndef   __UNALIGNED_UINT16_READ
  87:Drivers/CMSIS/Include/cmsis_gcc.h ****   #pragma GCC diagnostic push
  88:Drivers/CMSIS/Include/cmsis_gcc.h ****   #pragma GCC diagnostic ignored "-Wpacked"
  89:Drivers/CMSIS/Include/cmsis_gcc.h ****   #pragma GCC diagnostic ignored "-Wattributes"
  90:Drivers/CMSIS/Include/cmsis_gcc.h ****   __PACKED_STRUCT T_UINT16_READ { uint16_t v; };
  91:Drivers/CMSIS/Include/cmsis_gcc.h ****   #pragma GCC diagnostic pop
  92:Drivers/CMSIS/Include/cmsis_gcc.h ****   #define __UNALIGNED_UINT16_READ(addr)          (((const struct T_UINT16_READ *)(const void *)(add
  93:Drivers/CMSIS/Include/cmsis_gcc.h **** #endif
  94:Drivers/CMSIS/Include/cmsis_gcc.h **** #ifndef   __UNALIGNED_UINT32_WRITE
  95:Drivers/CMSIS/Include/cmsis_gcc.h ****   #pragma GCC diagnostic push
  96:Drivers/CMSIS/Include/cmsis_gcc.h ****   #pragma GCC diagnostic ignored "-Wpacked"
  97:Drivers/CMSIS/Include/cmsis_gcc.h ****   #pragma GCC diagnostic ignored "-Wattributes"
  98:Drivers/CMSIS/Include/cmsis_gcc.h ****   __PACKED_STRUCT T_UINT32_WRITE { uint32_t v; };
  99:Drivers/CMSIS/Include/cmsis_gcc.h ****   #pragma GCC diagnostic pop
 100:Drivers/CMSIS/Include/cmsis_gcc.h ****   #define __UNALIGNED_UINT32_WRITE(addr, val)    (void)((((struct T_UINT32_WRITE *)(void *)(addr))-
 101:Drivers/CMSIS/Include/cmsis_gcc.h **** #endif
 102:Drivers/CMSIS/Include/cmsis_gcc.h **** #ifndef   __UNALIGNED_UINT32_READ
 103:Drivers/CMSIS/Include/cmsis_gcc.h ****   #pragma GCC diagnostic push
 104:Drivers/CMSIS/Include/cmsis_gcc.h ****   #pragma GCC diagnostic ignored "-Wpacked"
 105:Drivers/CMSIS/Include/cmsis_gcc.h ****   #pragma GCC diagnostic ignored "-Wattributes"
 106:Drivers/CMSIS/Include/cmsis_gcc.h ****   __PACKED_STRUCT T_UINT32_READ { uint32_t v; };
 107:Drivers/CMSIS/Include/cmsis_gcc.h ****   #pragma GCC diagnostic pop
 108:Drivers/CMSIS/Include/cmsis_gcc.h ****   #define __UNALIGNED_UINT32_READ(addr)          (((const struct T_UINT32_READ *)(const void *)(add
 109:Drivers/CMSIS/Include/cmsis_gcc.h **** #endif
 110:Drivers/CMSIS/Include/cmsis_gcc.h **** #ifndef   __ALIGNED
 111:Drivers/CMSIS/Include/cmsis_gcc.h ****   #define __ALIGNED(x)                           __attribute__((aligned(x)))
 112:Drivers/CMSIS/Include/cmsis_gcc.h **** #endif
 113:Drivers/CMSIS/Include/cmsis_gcc.h **** #ifndef   __RESTRICT
 114:Drivers/CMSIS/Include/cmsis_gcc.h ****   #define __RESTRICT                             __restrict
 115:Drivers/CMSIS/Include/cmsis_gcc.h **** #endif
 116:Drivers/CMSIS/Include/cmsis_gcc.h **** 
 117:Drivers/CMSIS/Include/cmsis_gcc.h **** 
 118:Drivers/CMSIS/Include/cmsis_gcc.h **** /* ###########################  Core Function Access  ########################### */
 119:Drivers/CMSIS/Include/cmsis_gcc.h **** /** \ingroup  CMSIS_Core_FunctionInterface
 120:Drivers/CMSIS/Include/cmsis_gcc.h ****     \defgroup CMSIS_Core_RegAccFunctions CMSIS Core Register Access Functions
 121:Drivers/CMSIS/Include/cmsis_gcc.h ****   @{
 122:Drivers/CMSIS/Include/cmsis_gcc.h ****  */
 123:Drivers/CMSIS/Include/cmsis_gcc.h **** 
 124:Drivers/CMSIS/Include/cmsis_gcc.h **** /**
 125:Drivers/CMSIS/Include/cmsis_gcc.h ****   \brief   Enable IRQ Interrupts
 126:Drivers/CMSIS/Include/cmsis_gcc.h ****   \details Enables IRQ interrupts by clearing the I-bit in the CPSR.
 127:Drivers/CMSIS/Include/cmsis_gcc.h ****            Can only be executed in Privileged modes.
 128:Drivers/CMSIS/Include/cmsis_gcc.h ****  */
 129:Drivers/CMSIS/Include/cmsis_gcc.h **** __STATIC_FORCEINLINE void __enable_irq(void)
 130:Drivers/CMSIS/Include/cmsis_gcc.h **** {
 131:Drivers/CMSIS/Include/cmsis_gcc.h ****   __ASM volatile ("cpsie i" : : : "memory");
 132:Drivers/CMSIS/Include/cmsis_gcc.h **** }
 133:Drivers/CMSIS/Include/cmsis_gcc.h **** 
 134:Drivers/CMSIS/Include/cmsis_gcc.h **** 
 135:Drivers/CMSIS/Include/cmsis_gcc.h **** /**
ARM GAS  C:\Users\gn10g\AppData\Local\Temp\ccMs7Hzi.s 			page 10


 136:Drivers/CMSIS/Include/cmsis_gcc.h ****   \brief   Disable IRQ Interrupts
 137:Drivers/CMSIS/Include/cmsis_gcc.h ****   \details Disables IRQ interrupts by setting the I-bit in the CPSR.
 138:Drivers/CMSIS/Include/cmsis_gcc.h ****            Can only be executed in Privileged modes.
 139:Drivers/CMSIS/Include/cmsis_gcc.h ****  */
 140:Drivers/CMSIS/Include/cmsis_gcc.h **** __STATIC_FORCEINLINE void __disable_irq(void)
 178              		.loc 3 140 27 view .LVU22
 179              	.LBB10:
 141:Drivers/CMSIS/Include/cmsis_gcc.h **** {
 142:Drivers/CMSIS/Include/cmsis_gcc.h ****   __ASM volatile ("cpsid i" : : : "memory");
 180              		.loc 3 142 3 view .LVU23
 181              		.syntax unified
 182              	@ 142 "Drivers/CMSIS/Include/cmsis_gcc.h" 1
 183 0000 72B6     		cpsid i
 184              	@ 0 "" 2
 185              		.thumb
 186              		.syntax unified
 187              	.L15:
 188              	.LBE10:
 189              	.LBE9:
 181:Core/Src/main.cpp ****   {
 190              		.loc 1 181 3 view .LVU24
 181:Core/Src/main.cpp ****   {
 191              		.loc 1 181 3 view .LVU25
 192 0002 FEE7     		b	.L15
 193              		.cfi_endproc
 194              	.LFE152:
 195              		.cantunwind
 196              		.fnend
 198              		.section	.text._Z18SystemClock_Configv,"ax",%progbits
 199              		.align	1
 200              		.global	_Z18SystemClock_Configv
 201              		.syntax unified
 202              		.thumb
 203              		.thumb_func
 205              	_Z18SystemClock_Configv:
 206              		.fnstart
 207              	.LFB149:
 118:Core/Src/main.cpp ****   RCC_OscInitTypeDef RCC_OscInitStruct = {0};
 208              		.loc 1 118 1 view -0
 209              		.cfi_startproc
 210              		@ args = 0, pretend = 0, frame = 88
 211              		@ frame_needed = 0, uses_anonymous_args = 0
 212 0000 10B5     		push	{r4, lr}
 213              		.save {r4, lr}
 214              	.LCFI2:
 215              		.cfi_def_cfa_offset 8
 216              		.cfi_offset 4, -8
 217              		.cfi_offset 14, -4
 218              		.pad #88
 219 0002 96B0     		sub	sp, sp, #88
 220              	.LCFI3:
 221              		.cfi_def_cfa_offset 96
 119:Core/Src/main.cpp ****   RCC_ClkInitTypeDef RCC_ClkInitStruct = {0};
 222              		.loc 1 119 3 view .LVU27
 119:Core/Src/main.cpp ****   RCC_ClkInitTypeDef RCC_ClkInitStruct = {0};
 223              		.loc 1 119 22 is_stmt 0 view .LVU28
 224 0004 0CAC     		add	r4, sp, #48
ARM GAS  C:\Users\gn10g\AppData\Local\Temp\ccMs7Hzi.s 			page 11


 225 0006 2822     		movs	r2, #40
 226 0008 0021     		movs	r1, #0
 227 000a 2046     		mov	r0, r4
 228 000c FFF7FEFF 		bl	memset
 229              	.LVL10:
 120:Core/Src/main.cpp ****   RCC_PeriphCLKInitTypeDef PeriphClkInit = {0};
 230              		.loc 1 120 3 is_stmt 1 view .LVU29
 120:Core/Src/main.cpp ****   RCC_PeriphCLKInitTypeDef PeriphClkInit = {0};
 231              		.loc 1 120 22 is_stmt 0 view .LVU30
 232 0010 0023     		movs	r3, #0
 233 0012 0793     		str	r3, [sp, #28]
 234 0014 0893     		str	r3, [sp, #32]
 235 0016 0993     		str	r3, [sp, #36]
 236 0018 0A93     		str	r3, [sp, #40]
 237 001a 0B93     		str	r3, [sp, #44]
 121:Core/Src/main.cpp **** 
 238              		.loc 1 121 3 is_stmt 1 view .LVU31
 121:Core/Src/main.cpp **** 
 239              		.loc 1 121 28 is_stmt 0 view .LVU32
 240 001c 0193     		str	r3, [sp, #4]
 241 001e 0293     		str	r3, [sp, #8]
 242 0020 0393     		str	r3, [sp, #12]
 243 0022 0493     		str	r3, [sp, #16]
 244 0024 0593     		str	r3, [sp, #20]
 245 0026 0693     		str	r3, [sp, #24]
 126:Core/Src/main.cpp ****   RCC_OscInitStruct.HSIState = RCC_HSI_ON;
 246              		.loc 1 126 3 is_stmt 1 view .LVU33
 126:Core/Src/main.cpp ****   RCC_OscInitStruct.HSIState = RCC_HSI_ON;
 247              		.loc 1 126 36 is_stmt 0 view .LVU34
 248 0028 0223     		movs	r3, #2
 249 002a 0C93     		str	r3, [sp, #48]
 127:Core/Src/main.cpp ****   RCC_OscInitStruct.HSICalibrationValue = RCC_HSICALIBRATION_DEFAULT;
 250              		.loc 1 127 3 is_stmt 1 view .LVU35
 127:Core/Src/main.cpp ****   RCC_OscInitStruct.HSICalibrationValue = RCC_HSICALIBRATION_DEFAULT;
 251              		.loc 1 127 30 is_stmt 0 view .LVU36
 252 002c 0122     		movs	r2, #1
 253 002e 1092     		str	r2, [sp, #64]
 128:Core/Src/main.cpp ****   RCC_OscInitStruct.PLL.PLLState = RCC_PLL_ON;
 254              		.loc 1 128 3 is_stmt 1 view .LVU37
 128:Core/Src/main.cpp ****   RCC_OscInitStruct.PLL.PLLState = RCC_PLL_ON;
 255              		.loc 1 128 41 is_stmt 0 view .LVU38
 256 0030 1022     		movs	r2, #16
 257 0032 1192     		str	r2, [sp, #68]
 129:Core/Src/main.cpp ****   RCC_OscInitStruct.PLL.PLLSource = RCC_PLLSOURCE_HSI;
 258              		.loc 1 129 3 is_stmt 1 view .LVU39
 129:Core/Src/main.cpp ****   RCC_OscInitStruct.PLL.PLLSource = RCC_PLLSOURCE_HSI;
 259              		.loc 1 129 34 is_stmt 0 view .LVU40
 260 0034 1393     		str	r3, [sp, #76]
 130:Core/Src/main.cpp ****   RCC_OscInitStruct.PLL.PLLMUL = RCC_PLL_MUL16;
 261              		.loc 1 130 3 is_stmt 1 view .LVU41
 131:Core/Src/main.cpp ****   if (HAL_RCC_OscConfig(&RCC_OscInitStruct) != HAL_OK)
 262              		.loc 1 131 3 view .LVU42
 131:Core/Src/main.cpp ****   if (HAL_RCC_OscConfig(&RCC_OscInitStruct) != HAL_OK)
 263              		.loc 1 131 32 is_stmt 0 view .LVU43
 264 0036 4FF46013 		mov	r3, #3670016
 265 003a 1593     		str	r3, [sp, #84]
 132:Core/Src/main.cpp ****   {
ARM GAS  C:\Users\gn10g\AppData\Local\Temp\ccMs7Hzi.s 			page 12


 266              		.loc 1 132 3 is_stmt 1 view .LVU44
 132:Core/Src/main.cpp ****   {
 267              		.loc 1 132 24 is_stmt 0 view .LVU45
 268 003c 2046     		mov	r0, r4
 269 003e FFF7FEFF 		bl	HAL_RCC_OscConfig
 270              	.LVL11:
 132:Core/Src/main.cpp ****   {
 271              		.loc 1 132 3 discriminator 1 view .LVU46
 272 0042 C8B9     		cbnz	r0, .L21
 139:Core/Src/main.cpp ****   RCC_ClkInitStruct.SYSCLKSource = RCC_SYSCLKSOURCE_PLLCLK;
 273              		.loc 1 139 3 is_stmt 1 view .LVU47
 139:Core/Src/main.cpp ****   RCC_ClkInitStruct.SYSCLKSource = RCC_SYSCLKSOURCE_PLLCLK;
 274              		.loc 1 139 31 is_stmt 0 view .LVU48
 275 0044 0F23     		movs	r3, #15
 276 0046 0793     		str	r3, [sp, #28]
 140:Core/Src/main.cpp ****   RCC_ClkInitStruct.AHBCLKDivider = RCC_SYSCLK_DIV1;
 277              		.loc 1 140 3 is_stmt 1 view .LVU49
 140:Core/Src/main.cpp ****   RCC_ClkInitStruct.AHBCLKDivider = RCC_SYSCLK_DIV1;
 278              		.loc 1 140 34 is_stmt 0 view .LVU50
 279 0048 0221     		movs	r1, #2
 280 004a 0891     		str	r1, [sp, #32]
 141:Core/Src/main.cpp ****   RCC_ClkInitStruct.APB1CLKDivider = RCC_HCLK_DIV2;
 281              		.loc 1 141 3 is_stmt 1 view .LVU51
 141:Core/Src/main.cpp ****   RCC_ClkInitStruct.APB1CLKDivider = RCC_HCLK_DIV2;
 282              		.loc 1 141 35 is_stmt 0 view .LVU52
 283 004c 0023     		movs	r3, #0
 284 004e 0993     		str	r3, [sp, #36]
 142:Core/Src/main.cpp ****   RCC_ClkInitStruct.APB2CLKDivider = RCC_HCLK_DIV1;
 285              		.loc 1 142 3 is_stmt 1 view .LVU53
 142:Core/Src/main.cpp ****   RCC_ClkInitStruct.APB2CLKDivider = RCC_HCLK_DIV1;
 286              		.loc 1 142 36 is_stmt 0 view .LVU54
 287 0050 4FF48062 		mov	r2, #1024
 288 0054 0A92     		str	r2, [sp, #40]
 143:Core/Src/main.cpp **** 
 289              		.loc 1 143 3 is_stmt 1 view .LVU55
 143:Core/Src/main.cpp **** 
 290              		.loc 1 143 36 is_stmt 0 view .LVU56
 291 0056 0B93     		str	r3, [sp, #44]
 145:Core/Src/main.cpp ****   {
 292              		.loc 1 145 3 is_stmt 1 view .LVU57
 145:Core/Src/main.cpp ****   {
 293              		.loc 1 145 26 is_stmt 0 view .LVU58
 294 0058 07A8     		add	r0, sp, #28
 295 005a FFF7FEFF 		bl	HAL_RCC_ClockConfig
 296              	.LVL12:
 145:Core/Src/main.cpp ****   {
 297              		.loc 1 145 3 discriminator 1 view .LVU59
 298 005e 68B9     		cbnz	r0, .L22
 149:Core/Src/main.cpp ****   PeriphClkInit.Usart1ClockSelection = RCC_USART1CLKSOURCE_PCLK1;
 299              		.loc 1 149 3 is_stmt 1 view .LVU60
 149:Core/Src/main.cpp ****   PeriphClkInit.Usart1ClockSelection = RCC_USART1CLKSOURCE_PCLK1;
 300              		.loc 1 149 38 is_stmt 0 view .LVU61
 301 0060 41F20103 		movw	r3, #4097
 302 0064 0193     		str	r3, [sp, #4]
 150:Core/Src/main.cpp ****   PeriphClkInit.Tim1ClockSelection = RCC_TIM1CLK_HCLK;
 303              		.loc 1 150 3 is_stmt 1 view .LVU62
 150:Core/Src/main.cpp ****   PeriphClkInit.Tim1ClockSelection = RCC_TIM1CLK_HCLK;
ARM GAS  C:\Users\gn10g\AppData\Local\Temp\ccMs7Hzi.s 			page 13


 304              		.loc 1 150 38 is_stmt 0 view .LVU63
 305 0066 0023     		movs	r3, #0
 306 0068 0393     		str	r3, [sp, #12]
 151:Core/Src/main.cpp ****   if (HAL_RCCEx_PeriphCLKConfig(&PeriphClkInit) != HAL_OK)
 307              		.loc 1 151 3 is_stmt 1 view .LVU64
 151:Core/Src/main.cpp ****   if (HAL_RCCEx_PeriphCLKConfig(&PeriphClkInit) != HAL_OK)
 308              		.loc 1 151 36 is_stmt 0 view .LVU65
 309 006a 0693     		str	r3, [sp, #24]
 152:Core/Src/main.cpp ****   {
 310              		.loc 1 152 3 is_stmt 1 view .LVU66
 152:Core/Src/main.cpp ****   {
 311              		.loc 1 152 32 is_stmt 0 view .LVU67
 312 006c 01A8     		add	r0, sp, #4
 313 006e FFF7FEFF 		bl	HAL_RCCEx_PeriphCLKConfig
 314              	.LVL13:
 152:Core/Src/main.cpp ****   {
 315              		.loc 1 152 3 discriminator 1 view .LVU68
 316 0072 28B9     		cbnz	r0, .L23
 156:Core/Src/main.cpp **** 
 317              		.loc 1 156 1 view .LVU69
 318 0074 16B0     		add	sp, sp, #88
 319              	.LCFI4:
 320              		.cfi_remember_state
 321              		.cfi_def_cfa_offset 8
 322              		@ sp needed
 323 0076 10BD     		pop	{r4, pc}
 324              	.L21:
 325              	.LCFI5:
 326              		.cfi_restore_state
 134:Core/Src/main.cpp ****   }
 327              		.loc 1 134 5 is_stmt 1 view .LVU70
 134:Core/Src/main.cpp ****   }
 328              		.loc 1 134 18 is_stmt 0 view .LVU71
 329 0078 FFF7FEFF 		bl	Error_Handler
 330              	.LVL14:
 331              	.L22:
 147:Core/Src/main.cpp ****   }
 332              		.loc 1 147 5 is_stmt 1 view .LVU72
 147:Core/Src/main.cpp ****   }
 333              		.loc 1 147 18 is_stmt 0 view .LVU73
 334 007c FFF7FEFF 		bl	Error_Handler
 335              	.LVL15:
 336              	.L23:
 154:Core/Src/main.cpp ****   }
 337              		.loc 1 154 5 is_stmt 1 view .LVU74
 154:Core/Src/main.cpp ****   }
 338              		.loc 1 154 18 is_stmt 0 view .LVU75
 339 0080 FFF7FEFF 		bl	Error_Handler
 340              	.LVL16:
 341              		.cfi_endproc
 342              	.LFE149:
 343              		.fnend
 345              		.section	.text.main,"ax",%progbits
 346              		.align	1
 347              		.global	main
 348              		.syntax unified
 349              		.thumb
ARM GAS  C:\Users\gn10g\AppData\Local\Temp\ccMs7Hzi.s 			page 14


 350              		.thumb_func
 352              	main:
 353              		.fnstart
 354              	.LFB148:
  68:Core/Src/main.cpp **** 
 355              		.loc 1 68 1 is_stmt 1 view -0
 356              		.cfi_startproc
 357              		@ args = 0, pretend = 0, frame = 0
 358              		@ frame_needed = 0, uses_anonymous_args = 0
 359 0000 08B5     		push	{r3, lr}
 360              		.save {r3, lr}
 361              	.LCFI6:
 362              		.cfi_def_cfa_offset 8
 363              		.cfi_offset 3, -8
 364              		.cfi_offset 14, -4
  77:Core/Src/main.cpp **** 
 365              		.loc 1 77 3 view .LVU77
  77:Core/Src/main.cpp **** 
 366              		.loc 1 77 11 is_stmt 0 view .LVU78
 367 0002 FFF7FEFF 		bl	HAL_Init
 368              	.LVL17:
  84:Core/Src/main.cpp **** 
 369              		.loc 1 84 3 is_stmt 1 view .LVU79
  84:Core/Src/main.cpp **** 
 370              		.loc 1 84 21 is_stmt 0 view .LVU80
 371 0006 FFF7FEFF 		bl	_Z18SystemClock_Configv
 372              	.LVL18:
  91:Core/Src/main.cpp ****   MX_CAN_Init();
 373              		.loc 1 91 3 is_stmt 1 view .LVU81
  91:Core/Src/main.cpp ****   MX_CAN_Init();
 374              		.loc 1 91 15 is_stmt 0 view .LVU82
 375 000a FFF7FEFF 		bl	MX_GPIO_Init
 376              	.LVL19:
  92:Core/Src/main.cpp ****   MX_TIM1_Init();
 377              		.loc 1 92 3 is_stmt 1 view .LVU83
  92:Core/Src/main.cpp ****   MX_TIM1_Init();
 378              		.loc 1 92 14 is_stmt 0 view .LVU84
 379 000e FFF7FEFF 		bl	MX_CAN_Init
 380              	.LVL20:
  93:Core/Src/main.cpp ****   MX_TIM2_Init();
 381              		.loc 1 93 3 is_stmt 1 view .LVU85
  93:Core/Src/main.cpp ****   MX_TIM2_Init();
 382              		.loc 1 93 15 is_stmt 0 view .LVU86
 383 0012 FFF7FEFF 		bl	MX_TIM1_Init
 384              	.LVL21:
  94:Core/Src/main.cpp ****   MX_TIM6_Init();
 385              		.loc 1 94 3 is_stmt 1 view .LVU87
  94:Core/Src/main.cpp ****   MX_TIM6_Init();
 386              		.loc 1 94 15 is_stmt 0 view .LVU88
 387 0016 FFF7FEFF 		bl	MX_TIM2_Init
 388              	.LVL22:
  95:Core/Src/main.cpp ****   MX_USART1_UART_Init();
 389              		.loc 1 95 3 is_stmt 1 view .LVU89
  95:Core/Src/main.cpp ****   MX_USART1_UART_Init();
 390              		.loc 1 95 15 is_stmt 0 view .LVU90
 391 001a FFF7FEFF 		bl	MX_TIM6_Init
 392              	.LVL23:
ARM GAS  C:\Users\gn10g\AppData\Local\Temp\ccMs7Hzi.s 			page 15


  96:Core/Src/main.cpp ****   /* USER CODE BEGIN 2 */
 393              		.loc 1 96 3 is_stmt 1 view .LVU91
  96:Core/Src/main.cpp ****   /* USER CODE BEGIN 2 */
 394              		.loc 1 96 22 is_stmt 0 view .LVU92
 395 001e FFF7FEFF 		bl	MX_USART1_UART_Init
 396              	.LVL24:
  98:Core/Src/main.cpp ****   /* USER CODE END 2 */
 397              		.loc 1 98 3 is_stmt 1 view .LVU93
  98:Core/Src/main.cpp ****   /* USER CODE END 2 */
 398              		.loc 1 98 11 is_stmt 0 view .LVU94
 399 0022 0348     		ldr	r0, .L27
 400 0024 FFF7FEFF 		bl	_ZN3App4initEv
 401              	.LVL25:
 402              	.L25:
 103:Core/Src/main.cpp ****   {
 403              		.loc 1 103 3 is_stmt 1 view .LVU95
 108:Core/Src/main.cpp ****   }
 404              		.loc 1 108 5 discriminator 1 view .LVU96
 108:Core/Src/main.cpp ****   }
 405              		.loc 1 108 18 is_stmt 0 discriminator 1 view .LVU97
 406 0028 0148     		ldr	r0, .L27
 407 002a FFF7FEFF 		bl	_ZN3App9main_loopEv
 408              	.LVL26:
 103:Core/Src/main.cpp ****   {
 409              		.loc 1 103 3 is_stmt 1 view .LVU98
 410 002e FBE7     		b	.L25
 411              	.L28:
 412              		.align	2
 413              	.L27:
 414 0030 00000000 		.word	app
 415              		.cfi_endproc
 416              	.LFE148:
 417              		.fnend
 419              		.section	.text._GLOBAL__sub_I_app,"ax",%progbits
 420              		.align	1
 421              		.syntax unified
 422              		.thumb
 423              		.thumb_func
 425              	_GLOBAL__sub_I_app:
 426              		.fnstart
 427              	.LFB159:
 428              		.loc 1 185 1 view -0
 429              		.cfi_startproc
 430              		@ args = 0, pretend = 0, frame = 0
 431              		@ frame_needed = 0, uses_anonymous_args = 0
 432 0000 08B5     		push	{r3, lr}
 433              	.LCFI7:
 434              		.cfi_def_cfa_offset 8
 435              		.cfi_offset 3, -8
 436              		.cfi_offset 14, -4
 437              		.loc 1 185 1 is_stmt 0 view .LVU100
 438 0002 FFF7FEFF 		bl	_Z41__static_initialization_and_destruction_0v
 439              	.LVL27:
 440 0006 08BD     		pop	{r3, pc}
 441              		.cfi_endproc
 442              	.LFE159:
 443              		.cantunwind
ARM GAS  C:\Users\gn10g\AppData\Local\Temp\ccMs7Hzi.s 			page 16


 444              		.fnend
 446              		.section	.init_array,"aw",%init_array
 447              		.align	2
 448 0000 00000000 		.word	_GLOBAL__sub_I_app(target1)
 449              		.global	app
 450              		.section	.bss.app,"aw",%nobits
 451              		.align	2
 454              	app:
 455 0000 00000000 		.space	44
 455      00000000 
 455      00000000 
 455      00000000 
 455      00000000 
 456              		.text
 457              	.Letext0:
 458              		.file 4 "C:/Program Files (x86)/Arm GNU Toolchain arm-none-eabi/14.2 rel1/arm-none-eabi/include/ma
 459              		.file 5 "C:/Program Files (x86)/Arm GNU Toolchain arm-none-eabi/14.2 rel1/arm-none-eabi/include/sy
 460              		.file 6 "Drivers/CMSIS/Device/ST/STM32F3xx/Include/stm32f303x8.h"
 461              		.file 7 "Drivers/CMSIS/Device/ST/STM32F3xx/Include/stm32f3xx.h"
 462              		.file 8 "Drivers/STM32F3xx_HAL_Driver/Inc/stm32f3xx_hal_def.h"
 463              		.file 9 "Drivers/STM32F3xx_HAL_Driver/Inc/stm32f3xx_hal_rcc.h"
 464              		.file 10 "Drivers/STM32F3xx_HAL_Driver/Inc/stm32f3xx_hal_rcc_ex.h"
 465              		.file 11 "Drivers/STM32F3xx_HAL_Driver/Inc/stm32f3xx_hal_dma.h"
 466              		.file 12 "Drivers/STM32F3xx_HAL_Driver/Inc/stm32f3xx_hal_can.h"
 467              		.file 13 "Drivers/STM32F3xx_HAL_Driver/Inc/stm32f3xx_hal_tim.h"
 468              		.file 14 "CAN/Inc/can_config.hpp"
 469              		.file 15 "CAN/Inc/md_config.hpp"
 470              		.file 16 "Core/Inc/usart.h"
 471              		.file 17 "Core/Inc/tim.h"
 472              		.file 18 "Core/Inc/can.h"
 473              		.file 19 "Core/Inc/gpio.h"
 474              		.file 20 "CAN/Inc/md_data_manager.hpp"
 475              		.file 21 "Drivers/STM32F3xx_HAL_Driver/Inc/stm32f3xx_hal.h"
ARM GAS  C:\Users\gn10g\AppData\Local\Temp\ccMs7Hzi.s 			page 17

